target datalayout = "e-m:e-p270:32:32-p271:32:32-p272:64:64-i64:64-i128:128-f80:128-n8:16:32:64-S128"
target triple = "x86_64-unknown-linux-gnu"

%"class.icu_75::UnicodeString" = type { %"class.icu_75::Replaceable", %"union.icu_75::UnicodeString::StackBufferOrFields" }
%"class.icu_75::Replaceable" = type { %"class.icu_75::UObject" }
%"class.icu_75::UObject" = type { ptr }
%"union.icu_75::UnicodeString::StackBufferOrFields" = type { %struct.anon.0, [32 x i8] }
%struct.anon.0 = type { i16, i32, i32, ptr }

; Function Attrs: mustprogress nounwind uwtable
define linkonce_odr noundef i32 @_ZNK6icu_7513UnicodeString14getShortLengthEv(ptr noundef nonnull align 8 dereferenceable(64) %this) #0 comdat align 2 {
entry:
  %this.addr = alloca ptr, align 8
  store ptr %this, ptr %this.addr, align 8
  %this1 = load ptr, ptr %this.addr, align 8
  %fUnion = getelementptr inbounds %"class.icu_75::UnicodeString", ptr %this1, i32 0, i32 1
  %fLengthAndFlags = getelementptr inbounds %struct.anon.0, ptr %fUnion, i32 0, i32 0
  %0 = load i16, ptr %fLengthAndFlags, align 8
  %conv = sext i16 %0 to i32
  %shr = ashr i32 %conv, 5
  ret i32 %shr
}

; Function Attrs: mustprogress nounwind uwtable
define linkonce_odr noundef signext i8 @_ZNK6icu_7513UnicodeString14hasShortLengthEv(ptr noundef nonnull align 8 dereferenceable(64) %this) #0 comdat align 2 {
entry:
  %this.addr = alloca ptr, align 8
  store ptr %this, ptr %this.addr, align 8
  %this1 = load ptr, ptr %this.addr, align 8
  %fUnion = getelementptr inbounds %"class.icu_75::UnicodeString", ptr %this1, i32 0, i32 1
  %fLengthAndFlags = getelementptr inbounds %struct.anon.0, ptr %fUnion, i32 0, i32 0
  %0 = load i16, ptr %fLengthAndFlags, align 8
  %conv = sext i16 %0 to i32
  %cmp = icmp sge i32 %conv, 0
  %conv2 = zext i1 %cmp to i8
  ret i8 %conv2
}

; Function Attrs: mustprogress uwtable
define linkonce_odr noundef i32 @_ZNK6icu_7513UnicodeString6lengthEv(ptr noundef nonnull align 8 dereferenceable(64) %this) #1 comdat align 2 {
entry:
  %this.addr = alloca ptr, align 8
  store ptr %this, ptr %this.addr, align 8
  %this1 = load ptr, ptr %this.addr, align 8
  %call = call noundef signext i8 @_ZNK6icu_7513UnicodeString14hasShortLengthEv(ptr noundef nonnull align 8 dereferenceable(64) %this1)
  %tobool = icmp ne i8 %call, 0
  br i1 %tobool, label %cond.true, label %cond.false

cond.true:                                        ; preds = %entry
  %call2 = call noundef i32 @_ZNK6icu_7513UnicodeString14getShortLengthEv(ptr noundef nonnull align 8 dereferenceable(64) %this1)
  br label %cond.end

cond.false:                                       ; preds = %entry
  %fUnion = getelementptr inbounds %"class.icu_75::UnicodeString", ptr %this1, i32 0, i32 1
  %fLength = getelementptr inbounds %struct.anon.0, ptr %fUnion, i32 0, i32 1
  %0 = load i32, ptr %fLength, align 4
  br label %cond.end

cond.end:                                         ; preds = %cond.false, %cond.true
  %cond = phi i32 [ %call2, %cond.true ], [ %0, %cond.false ]
  ret i32 %cond
}

; Function Attrs: mustprogress uwtable
define noundef i32 @_ZN6icu_7511ICU_Utility11parseNumberERKNS_13UnicodeStringERia(ptr noundef nonnull align 8 dereferenceable(64) %text, ptr noundef nonnull align 4 dereferenceable(4) %pos, i8 noundef signext %radix) #1 align 2 {
entry:
  %retval = alloca i32, align 4
  %text.addr = alloca ptr, align 8
  %pos.addr = alloca ptr, align 8
  %radix.addr = alloca i8, align 1
  %n = alloca i32, align 4
  %p = alloca i32, align 4
  %ch = alloca i32, align 4
  %d = alloca i32, align 4
  store ptr %text, ptr %text.addr, align 8
  store ptr %pos, ptr %pos.addr, align 8
  store i8 %radix, ptr %radix.addr, align 1
  store i32 0, ptr %n, align 4
  %0 = load ptr, ptr %pos.addr, align 8
  %1 = load i32, ptr %0, align 4
  store i32 %1, ptr %p, align 4
  br label %while.cond

while.cond:                                       ; preds = %if.end6, %entry
  %2 = load i32, ptr %p, align 4
  %3 = load ptr, ptr %text.addr, align 8
  %call = call noundef i32 @_ZNK6icu_7513UnicodeString6lengthEv(ptr noundef nonnull align 8 dereferenceable(64) %3)
  %cmp = icmp slt i32 %2, %call
  br i1 %cmp, label %while.body, label %while.end

while.body:                                       ; preds = %while.cond
  %4 = load ptr, ptr %text.addr, align 8
  %5 = load i32, ptr %p, align 4
  %call1 = call noundef i32 @_ZNK6icu_7513UnicodeString8char32AtEi(ptr noundef nonnull align 8 dereferenceable(64) %4, i32 noundef %5)
  store i32 %call1, ptr %ch, align 4
  %6 = load i32, ptr %ch, align 4
  %7 = load i8, ptr %radix.addr, align 1
  %call2 = call i32 @u_digit_75(i32 noundef %6, i8 noundef signext %7)
  store i32 %call2, ptr %d, align 4
  %8 = load i32, ptr %d, align 4
  %cmp3 = icmp slt i32 %8, 0
  br i1 %cmp3, label %if.then, label %if.end

if.then:                                          ; preds = %while.body
  br label %while.end

if.end:                                           ; preds = %while.body
  %9 = load i8, ptr %radix.addr, align 1
  %conv = sext i8 %9 to i32
  %10 = load i32, ptr %n, align 4
  %mul = mul nsw i32 %conv, %10
  %11 = load i32, ptr %d, align 4
  %add = add nsw i32 %mul, %11
  store i32 %add, ptr %n, align 4
  %12 = load i32, ptr %n, align 4
  %cmp4 = icmp slt i32 %12, 0
  br i1 %cmp4, label %if.then5, label %if.end6

if.then5:                                         ; preds = %if.end
  store i32 -1, ptr %retval, align 4
  br label %return

if.end6:                                          ; preds = %if.end
  %13 = load i32, ptr %p, align 4
  %inc = add nsw i32 %13, 1
  store i32 %inc, ptr %p, align 4
  br label %while.cond, !llvm.loop !8

while.end:                                        ; preds = %if.then, %while.cond
  %14 = load i32, ptr %p, align 4
  %15 = load ptr, ptr %pos.addr, align 8
  %16 = load i32, ptr %15, align 4
  %cmp7 = icmp eq i32 %14, %16
  br i1 %cmp7, label %if.then8, label %if.end9

if.then8:                                         ; preds = %while.end
  store i32 -1, ptr %retval, align 4
  br label %return

if.end9:                                          ; preds = %while.end
  %17 = load i32, ptr %p, align 4
  %18 = load ptr, ptr %pos.addr, align 8
  store i32 %17, ptr %18, align 4
  %19 = load i32, ptr %n, align 4
  store i32 %19, ptr %retval, align 4
  br label %return

return:                                           ; preds = %if.end9, %if.then8, %if.then5
  %20 = load i32, ptr %retval, align 4
  ret i32 %20
}