; Function Attrs: mustprogress uwtable
define noundef i32 @_ZN6icu_7511ICU_Utility11parseNumberERKNS_13UnicodeStringERia(ptr noundef nonnull align 8 dereferenceable(64) %text, ptr nocapture noundef nonnull align 4 dereferenceable(4) %pos, i8 noundef signext %radix) local_unnamed_addr #1 align 2 {
entry:
  %0 = load i32, ptr %pos, align 4
  %fUnion.i.i = getelementptr inbounds i8, ptr %text, i64 8
  %fLength.i = getelementptr inbounds i8, ptr %text, i64 12
  %1 = load i16, ptr %fUnion.i.i, align 8
  %cmp.i.i14 = icmp slt i16 %1, 0
  %2 = ashr i16 %1, 5
  %shr.i.i15 = sext i16 %2 to i32
  %3 = load i32, ptr %fLength.i, align 4
  %cond.i16 = select i1 %cmp.i.i14, i32 %3, i32 %shr.i.i15
  %cmp17 = icmp slt i32 %0, %cond.i16
  br i1 %cmp17, label %while.body.lr.ph, label %return

while.body.lr.ph:                                 ; preds = %entry
  %conv = sext i8 %radix to i32
  br label %while.body

while.body:                                       ; preds = %while.body.lr.ph, %if.end6
  %n.019 = phi i32 [ 0, %while.body.lr.ph ], [ %add, %if.end6 ]
  %p.018 = phi i32 [ %0, %while.body.lr.ph ], [ %inc, %if.end6 ]
  %call1 = tail call noundef i32 @_ZNK6icu_7513UnicodeString8char32AtEi(ptr noundef nonnull align 8 dereferenceable(64) %text, i32 noundef %p.018)
  %call2 = tail call i32 @u_digit_75(i32 noundef %call1, i8 noundef signext %radix)
  %cmp3 = icmp slt i32 %call2, 0
  br i1 %cmp3, label %while.end, label %if.end

if.end:                                           ; preds = %while.body
  %mul = mul nsw i32 %n.019, %conv
  %add = add nsw i32 %call2, %mul
  %cmp4 = icmp slt i32 %add, 0
  br i1 %cmp4, label %return, label %if.end6

if.end6:                                          ; preds = %if.end
  %inc = add nsw i32 %p.018, 1
  %4 = load i16, ptr %fUnion.i.i, align 8
  %cmp.i.i = icmp slt i16 %4, 0
  %5 = ashr i16 %4, 5
  %shr.i.i = sext i16 %5 to i32
  %6 = load i32, ptr %fLength.i, align 4
  %cond.i = select i1 %cmp.i.i, i32 %6, i32 %shr.i.i
  %cmp = icmp slt i32 %inc, %cond.i
  br i1 %cmp, label %while.body, label %while.end, !llvm.loop !9

while.end:                                        ; preds = %if.end6, %while.body
  %p.0.lcssa.ph = phi i32 [ %inc, %if.end6 ], [ %p.018, %while.body ]
  %n.0.lcssa.ph = phi i32 [ %add, %if.end6 ], [ %n.019, %while.body ]
  %.pre = load i32, ptr %pos, align 4
  %cmp7 = icmp eq i32 %p.0.lcssa.ph, %.pre
  br i1 %cmp7, label %return, label %if.end9

if.end9:                                          ; preds = %while.end
  store i32 %p.0.lcssa.ph, ptr %pos, align 4
  br label %return

return:                                           ; preds = %if.end, %entry, %while.end, %if.end9
  %retval.0 = phi i32 [ %n.0.lcssa.ph, %if.end9 ], [ -1, %while.end ], [ -1, %entry ], [ -1, %if.end ]
  ret i32 %retval.0
}